; Function Attrs: mustprogress nounwind uwtable
define hidden void @_ZN14PhaseIdealLoop24get_assertion_predicatesEP4NodeR16Unique_Node_Listb(ptr nocapture noundef readonly %0, ptr noundef nonnull align 8 dereferenceable(68) %1, i1 noundef zeroext %2) local_unnamed_addr #0 align 2 {
  %4 = getelementptr inbounds i8, ptr %0, i64 8
  %5 = load ptr, ptr %4, align 8
  %6 = load ptr, ptr %5, align 8
  %7 = getelementptr inbounds i8, ptr %0, i64 52
  %8 = load i32, ptr %7, align 4
  %9 = sub i32 1, %8
  %10 = tail call noundef ptr @_ZNK9MultiNode8proj_outEj(ptr noundef nonnull align 8 dereferenceable(52) %6, i32 noundef %9) #8
  %11 = tail call noundef ptr @_ZNK4Node15unique_ctrl_outEv(ptr noundef nonnull align 8 dereferenceable(52) %10) #8
  %.0.in.in27 = getelementptr inbounds i8, ptr %6, i64 8
  %.0.in28 = load ptr, ptr %.0.in.in27, align 8
  %.029 = load ptr, ptr %.0.in28, align 8
  %.not30 = icmp eq ptr %.029, null
  br i1 %.not30, label %.critedge, label %.lr.ph

.lr.ph:                                           ; preds = %3
  %12 = getelementptr inbounds i8, ptr %1, i64 32
  %13 = getelementptr inbounds i8, ptr %1, i64 40
  %14 = getelementptr inbounds i8, ptr %1, i64 24
  %15 = getelementptr inbounds i8, ptr %1, i64 8
  %16 = getelementptr inbounds i8, ptr %1, i64 16
  br i1 %2, label %.lr.ph.split.us, label %.lr.ph.split

.lr.ph.split.us:                                  ; preds = %.lr.ph, %_ZN16Unique_Node_List4pushEP4Node.exit.us
  %.031.us = phi ptr [ %.0.us, %_ZN16Unique_Node_List4pushEP4Node.exit.us ], [ %.029, %.lr.ph ]
  %17 = getelementptr inbounds i8, ptr %.031.us, i64 44
  %18 = load i32, ptr %17, align 4
  %19 = and i32 %18, 15
  %20 = icmp eq i32 %19, 8
  br i1 %20, label %21, label %.critedge

21:                                               ; preds = %.lr.ph.split.us
  %22 = getelementptr inbounds i8, ptr %.031.us, i64 8
  %23 = load ptr, ptr %22, align 8
  %24 = load ptr, ptr %23, align 8
  %25 = getelementptr inbounds i8, ptr %24, i64 44
  %26 = load i32, ptr %25, align 4
  %27 = and i32 %26, 31
  %28 = icmp eq i32 %27, 21
  br i1 %28, label %29, label %.critedge

29:                                               ; preds = %21
  %30 = getelementptr inbounds i8, ptr %.031.us, i64 52
  %31 = load i32, ptr %30, align 4
  %32 = sub i32 1, %31
  %33 = tail call noundef ptr @_ZNK9MultiNode8proj_outEj(ptr noundef nonnull align 8 dereferenceable(52) %24, i32 noundef %32) #8
  %34 = tail call noundef ptr @_ZNK4Node15unique_ctrl_outEv(ptr noundef nonnull align 8 dereferenceable(52) %33) #8
  %.not20.us = icmp eq ptr %34, %11
  br i1 %.not20.us, label %35, label %.critedge

35:                                               ; preds = %29
  %36 = getelementptr inbounds i8, ptr %24, i64 8
  %37 = load ptr, ptr %36, align 8
  %38 = getelementptr inbounds i8, ptr %37, i64 8
  %39 = load ptr, ptr %38, align 8
  %40 = getelementptr inbounds i8, ptr %39, i64 44
  %41 = load i32, ptr %40, align 4
  %42 = and i32 %41, 262143
  %43 = icmp eq i32 %42, 131072
  br i1 %43, label %44, label %_ZN16Unique_Node_List4pushEP4Node.exit.us

44:                                               ; preds = %35
  %45 = getelementptr inbounds i8, ptr %39, i64 40
  %46 = load i32, ptr %45, align 8
  %47 = lshr i32 %46, 5
  %48 = load i32, ptr %12, align 8
  %.not.i.i.us = icmp ult i32 %47, %48
  br i1 %.not.i.i.us, label %_ZN9VectorSet8test_setEj.exit.i.us, label %49

49:                                               ; preds = %44
  tail call void @_ZN9VectorSet4growEj(ptr noundef nonnull align 8 dereferenceable(32) %12, i32 noundef %47) #8
  br label %_ZN9VectorSet8test_setEj.exit.i.us

_ZN9VectorSet8test_setEj.exit.i.us:               ; preds = %49, %44
  %50 = and i32 %46, 31
  %51 = shl nuw i32 1, %50
  %52 = load ptr, ptr %13, align 8
  %53 = zext nneg i32 %47 to i64
  %54 = getelementptr inbounds i32, ptr %52, i64 %53
  %55 = load i32, ptr %54, align 4
  %56 = or i32 %55, %51
  store i32 %56, ptr %54, align 4
  %57 = and i32 %55, %51
  %.not.i.us = icmp eq i32 %57, 0
  br i1 %.not.i.us, label %58, label %_ZN16Unique_Node_List4pushEP4Node.exit.us

58:                                               ; preds = %_ZN9VectorSet8test_setEj.exit.i.us
  %59 = load i32, ptr %14, align 8
  %60 = add i32 %59, 1
  store i32 %60, ptr %14, align 8
  %61 = load i32, ptr %15, align 8
  %.not.i.i.i.us = icmp ugt i32 %61, %59
  br i1 %.not.i.i.i.us, label %_ZN9Node_List4pushEP4Node.exit.i.us, label %62

62:                                               ; preds = %58
  tail call void @_ZN10Node_Array4growEj(ptr noundef nonnull align 8 dereferenceable(24) %1, i32 noundef %59) #8
  br label %_ZN9Node_List4pushEP4Node.exit.i.us

_ZN9Node_List4pushEP4Node.exit.i.us:              ; preds = %62, %58
  %63 = load ptr, ptr %16, align 8
  %64 = zext i32 %59 to i64
  %65 = getelementptr inbounds ptr, ptr %63, i64 %64
  store ptr %39, ptr %65, align 8
  br label %_ZN16Unique_Node_List4pushEP4Node.exit.us

_ZN16Unique_Node_List4pushEP4Node.exit.us:        ; preds = %_ZN9Node_List4pushEP4Node.exit.i.us, %_ZN9VectorSet8test_setEj.exit.i.us, %35
  %66 = load ptr, ptr %22, align 8
  %67 = load ptr, ptr %66, align 8
  %.0.in.in.us = getelementptr inbounds i8, ptr %67, i64 8
  %.0.in.us = load ptr, ptr %.0.in.in.us, align 8
  %.0.us = load ptr, ptr %.0.in.us, align 8
  %.not.us = icmp eq ptr %.0.us, null
  br i1 %.not.us, label %.critedge, label %.lr.ph.split.us, !llvm.loop !20

.lr.ph.split:                                     ; preds = %.lr.ph, %_ZN16Unique_Node_List4pushEP4Node.exit
  %.031 = phi ptr [ %.0, %_ZN16Unique_Node_List4pushEP4Node.exit ], [ %.029, %.lr.ph ]
  %68 = getelementptr inbounds i8, ptr %.031, i64 44
  %69 = load i32, ptr %68, align 4
  %70 = and i32 %69, 15
  %71 = icmp eq i32 %70, 8
  br i1 %71, label %72, label %.critedge

72:                                               ; preds = %.lr.ph.split
  %73 = getelementptr inbounds i8, ptr %.031, i64 8
  %74 = load ptr, ptr %73, align 8
  %75 = load ptr, ptr %74, align 8
  %76 = getelementptr inbounds i8, ptr %75, i64 44
  %77 = load i32, ptr %76, align 4
  %78 = and i32 %77, 31
  %79 = icmp eq i32 %78, 21
  br i1 %79, label %80, label %.critedge

80:                                               ; preds = %72
  %81 = getelementptr inbounds i8, ptr %.031, i64 52
  %82 = load i32, ptr %81, align 4
  %83 = sub i32 1, %82
  %84 = tail call noundef ptr @_ZNK9MultiNode8proj_outEj(ptr noundef nonnull align 8 dereferenceable(52) %75, i32 noundef %83) #8
  %85 = tail call noundef ptr @_ZNK4Node15unique_ctrl_outEv(ptr noundef nonnull align 8 dereferenceable(52) %84) #8
  %.not20 = icmp eq ptr %85, %11
  br i1 %.not20, label %86, label %.critedge

86:                                               ; preds = %80
  %87 = getelementptr inbounds i8, ptr %75, i64 8
  %88 = load ptr, ptr %87, align 8
  %89 = getelementptr inbounds i8, ptr %88, i64 8
  %90 = load ptr, ptr %89, align 8
  %91 = getelementptr inbounds i8, ptr %90, i64 44
  %92 = load i32, ptr %91, align 4
  %93 = and i32 %92, 262143
  %94 = icmp eq i32 %93, 131072
  br i1 %94, label %95, label %_ZN16Unique_Node_List4pushEP4Node.exit

95:                                               ; preds = %86
  %96 = getelementptr inbounds i8, ptr %.031, i64 40
  %97 = load i32, ptr %96, align 8
  %98 = lshr i32 %97, 5
  %99 = load i32, ptr %12, align 8
  %.not.i.i21 = icmp ult i32 %98, %99
  br i1 %.not.i.i21, label %_ZN9VectorSet8test_setEj.exit.i22, label %100

100:                                              ; preds = %95
  tail call void @_ZN9VectorSet4growEj(ptr noundef nonnull align 8 dereferenceable(32) %12, i32 noundef %98) #8
  br label %_ZN9VectorSet8test_setEj.exit.i22

_ZN9VectorSet8test_setEj.exit.i22:                ; preds = %100, %95
  %101 = and i32 %97, 31
  %102 = shl nuw i32 1, %101
  %103 = load ptr, ptr %13, align 8
  %104 = zext nneg i32 %98 to i64
  %105 = getelementptr inbounds i32, ptr %103, i64 %104
  %106 = load i32, ptr %105, align 4
  %107 = or i32 %106, %102
  store i32 %107, ptr %105, align 4
  %108 = and i32 %106, %102
  %.not.i23 = icmp eq i32 %108, 0
  br i1 %.not.i23, label %109, label %_ZN16Unique_Node_List4pushEP4Node.exit

109:                                              ; preds = %_ZN9VectorSet8test_setEj.exit.i22
  %110 = load i32, ptr %14, align 8
  %111 = add i32 %110, 1
  store i32 %111, ptr %14, align 8
  %112 = load i32, ptr %15, align 8
  %.not.i.i.i24 = icmp ugt i32 %112, %110
  br i1 %.not.i.i.i24, label %_ZN9Node_List4pushEP4Node.exit.i25, label %113

113:                                              ; preds = %109
  tail call void @_ZN10Node_Array4growEj(ptr noundef nonnull align 8 dereferenceable(24) %1, i32 noundef %110) #8
  br label %_ZN9Node_List4pushEP4Node.exit.i25

_ZN9Node_List4pushEP4Node.exit.i25:               ; preds = %113, %109
  %114 = load ptr, ptr %16, align 8
  %115 = zext i32 %110 to i64
  %116 = getelementptr inbounds ptr, ptr %114, i64 %115
  store ptr %.031, ptr %116, align 8
  br label %_ZN16Unique_Node_List4pushEP4Node.exit

_ZN16Unique_Node_List4pushEP4Node.exit:           ; preds = %_ZN9Node_List4pushEP4Node.exit.i25, %_ZN9VectorSet8test_setEj.exit.i22, %86
  %117 = load ptr, ptr %73, align 8
  %118 = load ptr, ptr %117, align 8
  %.0.in.in = getelementptr inbounds i8, ptr %118, i64 8
  %.0.in = load ptr, ptr %.0.in.in, align 8
  %.0 = load ptr, ptr %.0.in, align 8
  %.not = icmp eq ptr %.0, null
  br i1 %.not, label %.critedge, label %.lr.ph.split, !llvm.loop !20

.critedge:                                        ; preds = %72, %80, %_ZN16Unique_Node_List4pushEP4Node.exit, %.lr.ph.split, %21, %29, %_ZN16Unique_Node_List4pushEP4Node.exit.us, %.lr.ph.split.us, %3
  ret void
}